Certificate:
    Data:
        Version: 3 (0x2)
        Serial Number: 133 (0x85)
    Signature Algorithm: sha256WithRSAEncryption
        Issuer: C=DE, ST=NRW, L=Aachen, O=sonah UG, OU=Tech_Guys, CN=sonah_ca_1/name=EasyRSA/emailAddress=tech@sonah-parking.com
        Validity
            Not Before: Mar 30 19:41:58 2018 GMT
            Not After : Mar 27 19:41:58 2028 GMT
        Subject: C=DE, ST=NRW, L=Aachen, O=sonah UG, OU=Tech_Guys, CN=client1337/name=EasyRSA/emailAddress=tech@sonah-parking.com
        Subject Public Key Info:
            Public Key Algorithm: rsaEncryption
                Public-Key: (2048 bit)
                Modulus:
                    00:cf:2e:46:44:bc:55:ef:b3:f4:d4:bc:bd:f0:9e:
                    aa:2e:6f:c9:52:9c:b1:68:7b:b1:7d:6e:88:ab:6f:
                    b8:a5:f6:21:9b:fe:1c:ae:67:d0:5d:e9:9c:29:8c:
                    16:91:55:f5:e8:a3:41:e3:f8:8c:54:0a:49:3b:5e:
                    36:1f:3f:96:1b:77:a5:80:86:72:8b:38:31:e2:d1:
                    33:dd:7c:bb:57:01:2a:94:41:45:0e:24:52:67:a5:
                    a9:36:0f:90:76:2a:a4:f5:6d:d6:f4:35:3e:c9:56:
                    98:db:05:75:73:e5:12:b7:fe:98:cd:c8:ec:e7:1c:
                    c2:fd:49:81:38:2f:24:ea:ae:79:f2:08:27:ef:a9:
                    72:17:a1:4b:17:db:15:fa:e9:2c:86:b8:f3:96:e6:
                    1e:bf:2f:ae:11:48:5a:42:77:53:d6:13:d0:ac:44:
                    c1:7e:bd:6e:da:e8:1a:13:82:fb:c3:ec:74:1a:f8:
                    a3:6c:94:d6:09:31:87:ed:d5:60:3f:70:fc:3e:87:
                    6c:b2:33:11:3e:c5:f1:d2:c1:4a:2d:8c:c1:52:5f:
                    bd:79:1b:b8:f4:c7:94:39:a9:a6:6e:c3:fc:3b:1c:
                    a2:6f:5a:3f:61:49:37:a6:55:76:fc:db:2a:ef:c2:
                    e5:ad:e7:d9:27:0b:98:d1:a2:de:fa:8a:f5:33:ff:
                    b3:c1
                Exponent: 65537 (0x10001)
        X509v3 extensions:
            X509v3 Basic Constraints: 
                CA:FALSE
            Netscape Comment: 
                Easy-RSA Generated Certificate
            X509v3 Subject Key Identifier: 
                88:30:1E:92:21:AF:D7:3A:E7:D1:08:0D:86:67:B3:06:05:BF:3E:CF
            X509v3 Authority Key Identifier: 
                keyid:BE:F7:BE:6A:BF:6F:B4:89:ED:71:A8:79:6B:38:D5:74:E6:DB:14:43
                DirName:/C=DE/ST=NRW/L=Aachen/O=sonah UG/OU=Tech_Guys/CN=sonah_ca_1/name=EasyRSA/emailAddress=tech@sonah-parking.com
                serial:F9:42:CD:22:47:76:42:67

            X509v3 Extended Key Usage: 
                TLS Web Client Authentication
            X509v3 Key Usage: 
                Digital Signature
            X509v3 Subject Alternative Name: 
                DNS:client1337
    Signature Algorithm: sha256WithRSAEncryption
         24:bc:0f:16:e2:62:43:e9:35:68:f7:97:1a:36:58:21:70:35:
         58:8b:1a:a3:81:3d:13:ac:2f:66:9e:cd:90:53:8f:1e:40:c7:
         ed:90:f4:c4:2f:a9:a4:84:9f:97:7d:2b:cc:19:34:5c:4e:4b:
         71:71:31:a0:4d:79:f6:46:ee:3b:05:e7:8e:0e:f2:42:a9:f8:
         b1:0b:64:cd:f5:22:90:d8:de:fd:5f:6b:18:ad:46:cf:1e:8d:
         0c:bb:0d:0b:5a:3b:06:6d:7a:41:ba:90:48:99:86:8f:72:21:
         fa:ab:a2:fb:68:dd:0c:94:31:11:fa:5b:b3:eb:82:48:f6:55:
         90:21:96:6c:8f:62:8a:32:75:8c:db:a9:61:fa:5b:9f:1d:72:
         a0:66:00:b4:6f:67:20:8d:77:a1:6f:05:44:10:f5:ba:33:ae:
         27:a1:6f:64:19:68:72:bb:ce:08:ed:4b:2f:0b:73:77:d9:aa:
         a0:92:47:50:d7:5e:68:04:e6:7e:e6:99:74:2e:c7:35:4f:2a:
         20:e3:26:29:72:bc:80:64:f4:71:08:41:0d:fb:24:89:ee:dd:
         8d:77:de:55:1a:df:b0:f9:f2:cb:e4:be:b2:27:03:2c:0d:e2:
         10:83:dd:f3:be:e6:be:d7:4a:eb:3b:e5:ec:8c:e0:b5:55:f6:
         fe:71:51:25
-----BEGIN CERTIFICATE-----
MIIFMTCCBBmgAwIBAgICAIUwDQYJKoZIhvcNAQELBQAwgaExCzAJBgNVBAYTAkRF
MQwwCgYDVQQIEwNOUlcxDzANBgNVBAcTBkFhY2hlbjERMA8GA1UEChMIc29uYWgg
VUcxEjAQBgNVBAsUCVRlY2hfR3V5czETMBEGA1UEAxQKc29uYWhfY2FfMTEQMA4G
A1UEKRMHRWFzeVJTQTElMCMGCSqGSIb3DQEJARYWdGVjaEBzb25haC1wYXJraW5n
LmNvbTAeFw0xODAzMzAxOTQxNThaFw0yODAzMjcxOTQxNThaMIGhMQswCQYDVQQG
EwJERTEMMAoGA1UECBMDTlJXMQ8wDQYDVQQHEwZBYWNoZW4xETAPBgNVBAoTCHNv
bmFoIFVHMRIwEAYDVQQLFAlUZWNoX0d1eXMxEzARBgNVBAMTCmNsaWVudDEzMzcx
EDAOBgNVBCkTB0Vhc3lSU0ExJTAjBgkqhkiG9w0BCQEWFnRlY2hAc29uYWgtcGFy
a2luZy5jb20wggEiMA0GCSqGSIb3DQEBAQUAA4IBDwAwggEKAoIBAQDPLkZEvFXv
s/TUvL3wnqoub8lSnLFoe7F9boirb7il9iGb/hyuZ9Bd6ZwpjBaRVfXoo0Hj+IxU
Ckk7XjYfP5Ybd6WAhnKLODHi0TPdfLtXASqUQUUOJFJnpak2D5B2KqT1bdb0NT7J
VpjbBXVz5RK3/pjNyOznHML9SYE4LyTqrnnyCCfvqXIXoUsX2xX66SyGuPOW5h6/
L64RSFpCd1PWE9CsRMF+vW7a6BoTgvvD7HQa+KNslNYJMYft1WA/cPw+h2yyMxE+
xfHSwUotjMFSX715G7j0x5Q5qaZuw/w7HKJvWj9hSTemVXb82yrvwuWt59knC5jR
ot76ivUz/7PBAgMBAAGjggFvMIIBazAJBgNVHRMEAjAAMC0GCWCGSAGG+EIBDQQg
Fh5FYXN5LVJTQSBHZW5lcmF0ZWQgQ2VydGlmaWNhdGUwHQYDVR0OBBYEFIgwHpIh
r9c659EIDYZnswYFvz7PMIHWBgNVHSMEgc4wgcuAFL73vmq/b7SJ7XGoeWs41XTm
2xRDoYGnpIGkMIGhMQswCQYDVQQGEwJERTEMMAoGA1UECBMDTlJXMQ8wDQYDVQQH
EwZBYWNoZW4xETAPBgNVBAoTCHNvbmFoIFVHMRIwEAYDVQQLFAlUZWNoX0d1eXMx
EzARBgNVBAMUCnNvbmFoX2NhXzExEDAOBgNVBCkTB0Vhc3lSU0ExJTAjBgkqhkiG
9w0BCQEWFnRlY2hAc29uYWgtcGFya2luZy5jb22CCQD5Qs0iR3ZCZzATBgNVHSUE
DDAKBggrBgEFBQcDAjALBgNVHQ8EBAMCB4AwFQYDVR0RBA4wDIIKY2xpZW50MTMz
NzANBgkqhkiG9w0BAQsFAAOCAQEAJLwPFuJiQ+k1aPeXGjZYIXA1WIsao4E9E6wv
Zp7NkFOPHkDH7ZD0xC+ppISfl30rzBk0XE5LcXExoE159kbuOwXnjg7yQqn4sQtk
zfUikNje/V9rGK1Gzx6NDLsNC1o7Bm16QbqQSJmGj3Ih+qui+2jdDJQxEfpbs+uC
SPZVkCGWbI9iijJ1jNupYfpbnx1yoGYAtG9nII13oW8FRBD1ujOuJ6FvZBlocrvO
CO1LLwtzd9mqoJJHUNdeaATmfuaZdC7HNU8qIOMmKXK8gGT0cQhBDfskie7djXfe
VRrfsPnyy+S+sicDLA3iEIPd877mvtdK6zvl7IzgtVX2/nFRJQ==
-----END CERTIFICATE-----
